; Function Attrs: mustprogress nofree norecurse nosync nounwind willreturn memory(argmem: readwrite) uwtable
define void @_ZN2mu14ParserByteCode5clearEv(ptr noundef nonnull align 8 captures(none) dereferenceable(48) initializes((0, 4), (8, 16)) %0) local_unnamed_addr #20 align 2 personality ptr @__gxx_personality_v0 {
  %2 = getelementptr inbounds nuw i8, ptr %0, i64 16
  %3 = load ptr, ptr %2, align 8, !tbaa !18
  %4 = getelementptr inbounds nuw i8, ptr %0, i64 24
  %5 = load ptr, ptr %4, align 8, !tbaa !19
  %.not.i.i = icmp eq ptr %5, %3
  br i1 %.not.i.i, label %_ZNSt6vectorIN2mu6STokenESaIS1_EE5clearEv.exit, label %6

6:                                                ; preds = %1
  store ptr %3, ptr %4, align 8, !tbaa !19
  br label %_ZNSt6vectorIN2mu6STokenESaIS1_EE5clearEv.exit

_ZNSt6vectorIN2mu6STokenESaIS1_EE5clearEv.exit:   ; preds = %1, %6
  store i32 0, ptr %0, align 8, !tbaa !4
  %7 = getelementptr inbounds nuw i8, ptr %0, i64 8
  store i64 0, ptr %7, align 8, !tbaa !21
  ret void
}